; ModuleID = '61/794.c'
source_filename = "61/794.c"
target datalayout = "e-m:e-p270:32:32-p271:32:32-p272:64:64-i64:64-f80:128-n8:16:32:64-S128"
target triple = "x86_64-pc-linux-gnu"

@.str = private unnamed_addr constant [3 x i8] c"%d\00", align 1
@.str.1 = private unnamed_addr constant [4 x i8] c"%d\0A\00", align 1

; Function Attrs: noinline nounwind uwtable
define dso_local i32 @main() #0 {
  %1 = alloca i32, align 4
  %2 = alloca i32, align 4
  %3 = alloca [20 x i32], align 16
  %4 = alloca i32, align 4
  %5 = alloca i32, align 4
  store i32 0, i32* %1, align 4
  %6 = call i32 (i8*, ...) @__isoc99_scanf(i8* getelementptr inbounds ([3 x i8], [3 x i8]* @.str, i64 0, i64 0), i32* %2)
  %7 = getelementptr inbounds [20 x i32], [20 x i32]* %3, i64 0, i64 0
  store i32 1, i32* %7, align 16
  %8 = getelementptr inbounds [20 x i32], [20 x i32]* %3, i64 0, i64 1
  store i32 1, i32* %8, align 4
  store i32 2, i32* %4, align 4
  br label %9

9:                                                ; preds = %27, %0
  %10 = load i32, i32* %4, align 4
  %11 = icmp slt i32 %10, 20
  br i1 %11, label %12, label %30

12:                                               ; preds = %9
  %13 = load i32, i32* %4, align 4
  %14 = sub nsw i32 %13, 1
  %15 = sext i32 %14 to i64
  %16 = getelementptr inbounds [20 x i32], [20 x i32]* %3, i64 0, i64 %15
  %17 = load i32, i32* %16, align 4
  %18 = load i32, i32* %4, align 4
  %19 = sub nsw i32 %18, 2
  %20 = sext i32 %19 to i64
  %21 = getelementptr inbounds [20 x i32], [20 x i32]* %3, i64 0, i64 %20
  %22 = load i32, i32* %21, align 4
  %23 = add nsw i32 %17, %22
  %24 = load i32, i32* %4, align 4
  %25 = sext i32 %24 to i64
  %26 = getelementptr inbounds [20 x i32], [20 x i32]* %3, i64 0, i64 %25
  store i32 %23, i32* %26, align 4
  br label %27

27:                                               ; preds = %12
  %28 = load i32, i32* %4, align 4
  %29 = add nsw i32 %28, 1
  store i32 %29, i32* %4, align 4
  br label %9

30:                                               ; preds = %9
  store i32 0, i32* %4, align 4
  br label %31

31:                                               ; preds = %43, %30
  %32 = load i32, i32* %4, align 4
  %33 = load i32, i32* %2, align 4
  %34 = icmp slt i32 %32, %33
  br i1 %34, label %35, label %46

35:                                               ; preds = %31
  %36 = call i32 (i8*, ...) @__isoc99_scanf(i8* getelementptr inbounds ([3 x i8], [3 x i8]* @.str, i64 0, i64 0), i32* %5)
  %37 = load i32, i32* %5, align 4
  %38 = sub nsw i32 %37, 1
  %39 = sext i32 %38 to i64
  %40 = getelementptr inbounds [20 x i32], [20 x i32]* %3, i64 0, i64 %39
  %41 = load i32, i32* %40, align 4
  %42 = call i32 (i8*, ...) @printf(i8* getelementptr inbounds ([4 x i8], [4 x i8]* @.str.1, i64 0, i64 0), i32 %41)
  br label %43

43:                                               ; preds = %35
  %44 = load i32, i32* %4, align 4
  %45 = add nsw i32 %44, 1
  store i32 %45, i32* %4, align 4
  br label %31

46:                                               ; preds = %31
  %47 = call i32 @getchar()
  %48 = call i32 @getchar()
  %49 = load i32, i32* %1, align 4
  ret i32 %49
}

declare dso_local i32 @__isoc99_scanf(i8*, ...) #1

declare dso_local i32 @printf(i8*, ...) #1

declare dso_local i32 @getchar() #1


!llvm.module.flags = !{!0}
!llvm.ident = !{!1}

!0 = !{i32 1, !"wchar_size", i32 4}
!1 = !{!"clang version 10.0.0-4ubuntu1 "}
